target datalayout = "e-m:e-p270:32:32-p271:32:32-p272:64:64-i64:64-i128:128-f80:128-n8:16:32:64-S128"
target triple = "x86_64-pc-linux-gnu"

%struct._object = type { %union.anon, ptr }
%union.anon = type { i64 }
%struct.stringio = type { %struct._object, ptr, i64, i64, i64, i32, ptr, i8, i8, i8, i8, ptr, ptr, ptr, ptr, ptr, ptr }

@PyExc_ValueError = external global ptr, align 8
@.str.2 = private unnamed_addr constant [38 x i8] c"I/O operation on uninitialized object\00", align 1
@.str.3 = private unnamed_addr constant [29 x i8] c"I/O operation on closed file\00", align 1
@PyExc_OverflowError = external global ptr, align 8
@.str.5 = private unnamed_addr constant [26 x i8] c"new buffer size too large\00", align 1
@.str.11 = private unnamed_addr constant [9 x i8] c"truncate\00", align 1
@.str.20 = private unnamed_addr constant [24 x i8] c"Negative size value %zd\00", align 1

; Function Attrs: nounwind uwtable
define internal i32 @resize_buffer(ptr noundef %0, i64 noundef %1) #0 {
  %3 = alloca i32, align 4
  %4 = alloca ptr, align 8
  %5 = alloca i64, align 8
  %6 = alloca i64, align 8
  %7 = alloca ptr, align 8
  %8 = alloca i32, align 4
  store ptr %0, ptr %4, align 8, !tbaa !4
  store i64 %1, ptr %5, align 8, !tbaa !43
  call void @llvm.lifetime.start.p0(i64 8, ptr %6) #7
  %9 = load ptr, ptr %4, align 8, !tbaa !4
  %10 = getelementptr inbounds nuw %struct.stringio, ptr %9, i32 0, i32 4
  %11 = load i64, ptr %10, align 8, !tbaa !61
  store i64 %11, ptr %6, align 8, !tbaa !43
  call void @llvm.lifetime.start.p0(i64 8, ptr %7) #7
  store ptr null, ptr %7, align 8, !tbaa !54
  %12 = load i64, ptr %5, align 8, !tbaa !43
  %13 = add i64 %12, 1
  store i64 %13, ptr %5, align 8, !tbaa !43
  %14 = load i64, ptr %5, align 8, !tbaa !43
  %15 = icmp ugt i64 %14, 9223372036854775807
  br i1 %15, label %16, label %17

16:                                               ; preds = %2
  br label %74

17:                                               ; preds = %2
  %18 = load i64, ptr %5, align 8, !tbaa !43
  %19 = load i64, ptr %6, align 8, !tbaa !43
  %20 = udiv i64 %19, 2
  %21 = icmp ult i64 %18, %20
  br i1 %21, label %22, label %25

22:                                               ; preds = %17
  %23 = load i64, ptr %5, align 8, !tbaa !43
  %24 = add i64 %23, 1
  store i64 %24, ptr %6, align 8, !tbaa !43
  br label %52

25:                                               ; preds = %17
  %26 = load i64, ptr %5, align 8, !tbaa !43
  %27 = load i64, ptr %6, align 8, !tbaa !43
  %28 = icmp ult i64 %26, %27
  br i1 %28, label %29, label %30

29:                                               ; preds = %25
  store i32 0, ptr %3, align 4
  store i32 1, ptr %8, align 4
  br label %76

30:                                               ; preds = %25
  %31 = load i64, ptr %5, align 8, !tbaa !43
  %32 = uitofp i64 %31 to double
  %33 = load i64, ptr %6, align 8, !tbaa !43
  %34 = uitofp i64 %33 to double
  %35 = fmul double %34, 1.125000e+00
  %36 = fcmp ole double %32, %35
  br i1 %36, label %37, label %47

37:                                               ; preds = %30
  %38 = load i64, ptr %5, align 8, !tbaa !43
  %39 = load i64, ptr %5, align 8, !tbaa !43
  %40 = lshr i64 %39, 3
  %41 = add i64 %38, %40
  %42 = load i64, ptr %5, align 8, !tbaa !43
  %43 = icmp ult i64 %42, 9
  %44 = select i1 %43, i32 3, i32 6
  %45 = sext i32 %44 to i64
  %46 = add i64 %41, %45
  store i64 %46, ptr %6, align 8, !tbaa !43
  br label %50

47:                                               ; preds = %30
  %48 = load i64, ptr %5, align 8, !tbaa !43
  %49 = add i64 %48, 1
  store i64 %49, ptr %6, align 8, !tbaa !43
  br label %50

50:                                               ; preds = %47, %37
  br label %51

51:                                               ; preds = %50
  br label %52

52:                                               ; preds = %51, %22
  %53 = load i64, ptr %6, align 8, !tbaa !43
  %54 = icmp ugt i64 %53, 4611686018427387903
  br i1 %54, label %55, label %56

55:                                               ; preds = %52
  br label %74

56:                                               ; preds = %52
  %57 = load ptr, ptr %4, align 8, !tbaa !4
  %58 = getelementptr inbounds nuw %struct.stringio, ptr %57, i32 0, i32 1
  %59 = load ptr, ptr %58, align 8, !tbaa !19
  %60 = load i64, ptr %6, align 8, !tbaa !43
  %61 = mul i64 %60, 4
  %62 = call ptr @PyMem_Realloc(ptr noundef %59, i64 noundef %61)
  store ptr %62, ptr %7, align 8, !tbaa !54
  %63 = load ptr, ptr %7, align 8, !tbaa !54
  %64 = icmp eq ptr %63, null
  br i1 %64, label %65, label %67

65:                                               ; preds = %56
  %66 = call ptr @PyErr_NoMemory()
  store i32 -1, ptr %3, align 4
  store i32 1, ptr %8, align 4
  br label %76

67:                                               ; preds = %56
  %68 = load i64, ptr %6, align 8, !tbaa !43
  %69 = load ptr, ptr %4, align 8, !tbaa !4
  %70 = getelementptr inbounds nuw %struct.stringio, ptr %69, i32 0, i32 4
  store i64 %68, ptr %70, align 8, !tbaa !61
  %71 = load ptr, ptr %7, align 8, !tbaa !54
  %72 = load ptr, ptr %4, align 8, !tbaa !4
  %73 = getelementptr inbounds nuw %struct.stringio, ptr %72, i32 0, i32 1
  store ptr %71, ptr %73, align 8, !tbaa !19
  store i32 0, ptr %3, align 4
  store i32 1, ptr %8, align 4
  br label %76

74:                                               ; preds = %55, %16
  %75 = load ptr, ptr @PyExc_OverflowError, align 8, !tbaa !37
  call void @PyErr_SetString(ptr noundef %75, ptr noundef @.str.5)
  store i32 -1, ptr %3, align 4
  store i32 1, ptr %8, align 4
  br label %76

76:                                               ; preds = %74, %67, %65, %29
  call void @llvm.lifetime.end.p0(i64 8, ptr %7) #7
  call void @llvm.lifetime.end.p0(i64 8, ptr %6) #7
  %77 = load i32, ptr %3, align 4
  ret i32 %77
}

; Function Attrs: nounwind uwtable
define internal ptr @_io_StringIO_truncate_impl(ptr noundef %0, i64 noundef %1) #0 {
  %3 = alloca ptr, align 8
  %4 = alloca ptr, align 8
  %5 = alloca i64, align 8
  store ptr %0, ptr %4, align 8, !tbaa !4
  store i64 %1, ptr %5, align 8, !tbaa !43
  %6 = load ptr, ptr %4, align 8, !tbaa !4
  %7 = getelementptr inbounds nuw %struct.stringio, ptr %6, i32 0, i32 7
  %8 = load i8, ptr %7, align 8, !tbaa !10
  %9 = sext i8 %8 to i32
  %10 = icmp sle i32 %9, 0
  br i1 %10, label %11, label %13

11:                                               ; preds = %2
  %12 = load ptr, ptr @PyExc_ValueError, align 8, !tbaa !37
  call void @PyErr_SetString(ptr noundef %12, ptr noundef @.str.2)
  store ptr null, ptr %3, align 8
  br label %51

13:                                               ; preds = %2
  %14 = load ptr, ptr %4, align 8, !tbaa !4
  %15 = getelementptr inbounds nuw %struct.stringio, ptr %14, i32 0, i32 8
  %16 = load i8, ptr %15, align 1, !tbaa !38
  %17 = icmp ne i8 %16, 0
  br i1 %17, label %18, label %20

18:                                               ; preds = %13
  %19 = load ptr, ptr @PyExc_ValueError, align 8, !tbaa !37
  call void @PyErr_SetString(ptr noundef %19, ptr noundef @.str.3)
  store ptr null, ptr %3, align 8
  br label %51

20:                                               ; preds = %13
  %21 = load i64, ptr %5, align 8, !tbaa !43
  %22 = icmp slt i64 %21, 0
  br i1 %22, label %23, label %27

23:                                               ; preds = %20
  %24 = load ptr, ptr @PyExc_ValueError, align 8, !tbaa !37
  %25 = load i64, ptr %5, align 8, !tbaa !43
  %26 = call ptr (ptr, ptr, ...) @PyErr_Format(ptr noundef %24, ptr noundef @.str.20, i64 noundef %25)
  store ptr null, ptr %3, align 8
  br label %51

27:                                               ; preds = %20
  %28 = load i64, ptr %5, align 8, !tbaa !43
  %29 = load ptr, ptr %4, align 8, !tbaa !4
  %30 = getelementptr inbounds nuw %struct.stringio, ptr %29, i32 0, i32 3
  %31 = load i64, ptr %30, align 8, !tbaa !53
  %32 = icmp slt i64 %28, %31
  br i1 %32, label %33, label %48

33:                                               ; preds = %27
  %34 = load ptr, ptr %4, align 8, !tbaa !4
  %35 = call i32 @realize(ptr noundef %34)
  %36 = icmp slt i32 %35, 0
  br i1 %36, label %37, label %38

37:                                               ; preds = %33
  store ptr null, ptr %3, align 8
  br label %51

38:                                               ; preds = %33
  %39 = load ptr, ptr %4, align 8, !tbaa !4
  %40 = load i64, ptr %5, align 8, !tbaa !43
  %41 = call i32 @resize_buffer(ptr noundef %39, i64 noundef %40)
  %42 = icmp slt i32 %41, 0
  br i1 %42, label %43, label %44

43:                                               ; preds = %38
  store ptr null, ptr %3, align 8
  br label %51

44:                                               ; preds = %38
  %45 = load i64, ptr %5, align 8, !tbaa !43
  %46 = load ptr, ptr %4, align 8, !tbaa !4
  %47 = getelementptr inbounds nuw %struct.stringio, ptr %46, i32 0, i32 3
  store i64 %45, ptr %47, align 8, !tbaa !53
  br label %48

48:                                               ; preds = %44, %27
  %49 = load i64, ptr %5, align 8, !tbaa !43
  %50 = call ptr @PyLong_FromSsize_t(i64 noundef %49)
  store ptr %50, ptr %3, align 8
  br label %51

51:                                               ; preds = %48, %43, %37, %23, %18, %11
  %52 = load ptr, ptr %3, align 8
  ret ptr %52
}

; Function Attrs: nounwind uwtable
define internal ptr @_io_StringIO_truncate(ptr noundef %0, ptr noundef %1, i64 noundef %2) #0 {
  %4 = alloca ptr, align 8
  %5 = alloca ptr, align 8
  %6 = alloca i64, align 8
  %7 = alloca ptr, align 8
  %8 = alloca i64, align 8
  store ptr %0, ptr %4, align 8, !tbaa !37
  store ptr %1, ptr %5, align 8, !tbaa !35
  store i64 %2, ptr %6, align 8, !tbaa !43
  call void @llvm.lifetime.start.p0(i64 8, ptr %7) #7
  store ptr null, ptr %7, align 8, !tbaa !37
  call void @llvm.lifetime.start.p0(i64 8, ptr %8) #7
  %9 = load ptr, ptr %4, align 8, !tbaa !37
  %10 = getelementptr inbounds nuw %struct.stringio, ptr %9, i32 0, i32 2
  %11 = load i64, ptr %10, align 8, !tbaa !52
  store i64 %11, ptr %8, align 8, !tbaa !43
  %12 = load i64, ptr %6, align 8, !tbaa !43
  %13 = icmp sle i64 0, %12
  br i1 %13, label %14, label %17

14:                                               ; preds = %3
  %15 = load i64, ptr %6, align 8, !tbaa !43
  %16 = icmp sle i64 %15, 1
  br i1 %16, label %22, label %17

17:                                               ; preds = %14, %3
  %18 = load i64, ptr %6, align 8, !tbaa !43
  %19 = call i32 @_PyArg_CheckPositional(ptr noundef @.str.11, i64 noundef %18, i64 noundef 0, i64 noundef 1)
  %20 = icmp ne i32 %19, 0
  br i1 %20, label %22, label %21

21:                                               ; preds = %17
  br label %38

22:                                               ; preds = %17, %14
  %23 = load i64, ptr %6, align 8, !tbaa !43
  %24 = icmp slt i64 %23, 1
  br i1 %24, label %25, label %26

25:                                               ; preds = %22
  br label %34

26:                                               ; preds = %22
  %27 = load ptr, ptr %5, align 8, !tbaa !35
  %28 = getelementptr ptr, ptr %27, i64 0
  %29 = load ptr, ptr %28, align 8, !tbaa !37
  %30 = call i32 @_Py_convert_optional_to_ssize_t(ptr noundef %29, ptr noundef %8)
  %31 = icmp ne i32 %30, 0
  br i1 %31, label %33, label %32

32:                                               ; preds = %26
  br label %38

33:                                               ; preds = %26
  br label %34

34:                                               ; preds = %33, %25
  %35 = load ptr, ptr %4, align 8, !tbaa !37
  %36 = load i64, ptr %8, align 8, !tbaa !43
  %37 = call ptr @_io_StringIO_truncate_impl(ptr noundef %35, i64 noundef %36)
  store ptr %37, ptr %7, align 8, !tbaa !37
  br label %38

38:                                               ; preds = %34, %32, %21
  %39 = load ptr, ptr %7, align 8, !tbaa !37
  call void @llvm.lifetime.end.p0(i64 8, ptr %8) #7
  call void @llvm.lifetime.end.p0(i64 8, ptr %7) #7
  ret ptr %39
}