; Function Attrs: nounwind uwtable
define internal ptr @_io_StringIO_truncate(ptr noundef captures(none) %0, ptr noundef readonly captures(none) %1, i64 noundef %2) #0 {
  %4 = alloca i64, align 8
  call void @llvm.lifetime.start.p0(i64 8, ptr nonnull %4) #6
  %5 = getelementptr inbounds nuw i8, ptr %0, i64 24
  %6 = load i64, ptr %5, align 8, !tbaa !42
  store i64 %6, ptr %4, align 8, !tbaa !64
  %or.cond = icmp ult i64 %2, 2
  br i1 %or.cond, label %9, label %7

7:                                                ; preds = %3
  %8 = tail call i32 @_PyArg_CheckPositional(ptr noundef nonnull @.str.11, i64 noundef %2, i64 noundef 0, i64 noundef 1) #6
  %.not = icmp eq i32 %8, 0
  br i1 %.not, label %_io_StringIO_truncate_impl.exit, label %9

9:                                                ; preds = %3, %7
  %10 = icmp slt i64 %2, 1
  br i1 %10, label %14, label %11

11:                                               ; preds = %9
  %12 = load ptr, ptr %1, align 8, !tbaa !37
  %13 = call i32 @_Py_convert_optional_to_ssize_t(ptr noundef %12, ptr noundef nonnull %4) #6
  %.not8 = icmp eq i32 %13, 0
  br i1 %.not8, label %_io_StringIO_truncate_impl.exit, label %._crit_edge

._crit_edge:                                      ; preds = %11
  %.pre = load i64, ptr %4, align 8, !tbaa !64
  br label %14

14:                                               ; preds = %._crit_edge, %9
  %15 = phi i64 [ %.pre, %._crit_edge ], [ %6, %9 ]
  %16 = getelementptr inbounds nuw i8, ptr %0, i64 64
  %17 = load i8, ptr %16, align 8, !tbaa !14
  %18 = icmp slt i8 %17, 1
  br i1 %18, label %19, label %21

19:                                               ; preds = %14
  %20 = load ptr, ptr @PyExc_ValueError, align 8, !tbaa !37
  call void @PyErr_SetString(ptr noundef %20, ptr noundef nonnull @.str.2) #6
  br label %_io_StringIO_truncate_impl.exit

21:                                               ; preds = %14
  %22 = getelementptr inbounds nuw i8, ptr %0, i64 65
  %23 = load i8, ptr %22, align 1, !tbaa !38
  %.not.i = icmp eq i8 %23, 0
  br i1 %.not.i, label %26, label %24

24:                                               ; preds = %21
  %25 = load ptr, ptr @PyExc_ValueError, align 8, !tbaa !37
  call void @PyErr_SetString(ptr noundef %25, ptr noundef nonnull @.str.3) #6
  br label %_io_StringIO_truncate_impl.exit

26:                                               ; preds = %21
  %27 = icmp slt i64 %15, 0
  br i1 %27, label %28, label %31

28:                                               ; preds = %26
  %29 = load ptr, ptr @PyExc_ValueError, align 8, !tbaa !37
  %30 = call ptr (ptr, ptr, ...) @PyErr_Format(ptr noundef %29, ptr noundef nonnull @.str.20, i64 noundef %15) #6
  br label %_io_StringIO_truncate_impl.exit

31:                                               ; preds = %26
  %32 = getelementptr inbounds nuw i8, ptr %0, i64 32
  %33 = load i64, ptr %32, align 8, !tbaa !43
  %34 = icmp slt i64 %15, %33
  br i1 %34, label %35, label %74

35:                                               ; preds = %31
  %36 = call fastcc i32 @realize(ptr noundef nonnull %0)
  %37 = icmp slt i32 %36, 0
  br i1 %37, label %_io_StringIO_truncate_impl.exit, label %38

38:                                               ; preds = %35
  %39 = getelementptr inbounds nuw i8, ptr %0, i64 40
  %40 = load i64, ptr %39, align 8, !tbaa !61
  %41 = add nuw nsw i64 %15, 1
  %42 = lshr i64 %40, 1
  %43 = icmp samesign ult i64 %41, %42
  br i1 %43, label %44, label %46

44:                                               ; preds = %38
  %45 = add nuw nsw i64 %15, 2
  br label %61

46:                                               ; preds = %38
  %47 = icmp ult i64 %41, %40
  br i1 %47, label %resize_buffer.exit.i, label %48

48:                                               ; preds = %46
  %49 = uitofp nneg i64 %41 to double
  %50 = uitofp nneg i64 %40 to double
  %51 = fmul double %50, 1.125000e+00
  %52 = fcmp ult double %51, %49
  br i1 %52, label %59, label %53

53:                                               ; preds = %48
  %54 = lshr i64 %41, 3
  %55 = add nuw i64 %54, %41
  %56 = icmp samesign ult i64 %15, 8
  %57 = select i1 %56, i64 3, i64 6
  %58 = add nuw i64 %55, %57
  br label %61

59:                                               ; preds = %48
  %60 = add nuw i64 %15, 2
  br label %61

61:                                               ; preds = %59, %53, %44
  %.0.i.i = phi i64 [ %45, %44 ], [ %58, %53 ], [ %60, %59 ]
  %62 = icmp ugt i64 %.0.i.i, 4611686018427387903
  br i1 %62, label %72, label %63

63:                                               ; preds = %61
  %64 = getelementptr inbounds nuw i8, ptr %0, i64 16
  %65 = load ptr, ptr %64, align 8, !tbaa !21
  %66 = shl nuw i64 %.0.i.i, 2
  %67 = call ptr @PyMem_Realloc(ptr noundef %65, i64 noundef %66) #6
  %68 = icmp eq ptr %67, null
  br i1 %68, label %69, label %71

69:                                               ; preds = %63
  %70 = call ptr @PyErr_NoMemory() #6
  br label %_io_StringIO_truncate_impl.exit

71:                                               ; preds = %63
  store i64 %.0.i.i, ptr %39, align 8, !tbaa !61
  store ptr %67, ptr %64, align 8, !tbaa !21
  br label %resize_buffer.exit.i

72:                                               ; preds = %61
  %73 = load ptr, ptr @PyExc_OverflowError, align 8, !tbaa !37
  call void @PyErr_SetString(ptr noundef %73, ptr noundef nonnull @.str.5) #6
  br label %_io_StringIO_truncate_impl.exit

resize_buffer.exit.i:                             ; preds = %71, %46
  store i64 %15, ptr %32, align 8, !tbaa !43
  br label %74

74:                                               ; preds = %resize_buffer.exit.i, %31
  %75 = call ptr @PyLong_FromSsize_t(i64 noundef %15) #6
  br label %_io_StringIO_truncate_impl.exit

_io_StringIO_truncate_impl.exit:                  ; preds = %74, %72, %69, %35, %28, %24, %19, %11, %7
  %.0 = phi ptr [ null, %11 ], [ null, %7 ], [ null, %19 ], [ null, %24 ], [ null, %28 ], [ %75, %74 ], [ null, %35 ], [ null, %72 ], [ null, %69 ]
  call void @llvm.lifetime.end.p0(i64 8, ptr nonnull %4) #6
  ret ptr %.0
}